; Function Attrs: mustprogress nofree norecurse nosync nounwind willreturn memory(read, inaccessiblemem: none) uwtable
define hidden noundef ptr @_ZNK6hermes10BasicBlock13getTerminatorEv(ptr noundef nonnull readonly align 8 dereferenceable(80) %this) local_unnamed_addr #4 align 2 {
entry:
  %InstList = getelementptr inbounds i8, ptr %this, i64 56
  %0 = load ptr, ptr %InstList, align 8
  %cmp.i.i = icmp eq ptr %0, %InstList
  br i1 %cmp.i.i, label %return, label %if.end

if.end:                                           ; preds = %entry
  %add.ptr.i.i.i.i.i.i = getelementptr inbounds i8, ptr %0, i64 16
  %1 = load i8, ptr %add.ptr.i.i.i.i.i.i, align 8
  %2 = add i8 %1, -75
  %3 = icmp ult i8 %2, 15
  %spec.select.i = select i1 %3, ptr %0, ptr null
  br label %return

return:                                           ; preds = %entry, %if.end
  %retval.0 = phi ptr [ %spec.select.i, %if.end ], [ null, %entry ]
  ret ptr %retval.0
}